target datalayout = "e-m:e-p270:32:32-p271:32:32-p272:64:64-i64:64-i128:128-f80:128-n8:16:32:64-S128"
target triple = "x86_64-pc-linux-gnu"

%struct.AVFilterContext = type { ptr, ptr, ptr, ptr, ptr, i32, ptr, ptr, i32, ptr, ptr, i32, i32, ptr, ptr, ptr, ptr, i32, ptr, i32, i32 }
%struct.AVFilterLink = type { ptr, ptr, ptr, ptr, i32, i32, i32, i32, %struct.AVRational, i32, i32, i32, %struct.AVChannelLayout, %struct.AVRational, ptr, i32, %struct.AVFilterFormatsConfig, %struct.AVFilterFormatsConfig }
%struct.AVChannelLayout = type { i32, i32, %union.anon.1, ptr }
%union.anon.1 = type { i64 }
%struct.AVRational = type { i32, i32 }
%struct.AVFilterFormatsConfig = type { ptr, ptr, ptr, ptr, ptr }
%struct.AVPixFmtDescriptor = type { ptr, i8, i8, i8, i64, [4 x %struct.AVComponentDescriptor], ptr }
%struct.AVComponentDescriptor = type { i32, i32, i32, i32, i32 }
%struct.HistogramContext = type { ptr, i32, i32, i32, [65536 x i32], i32, i32, i32, i32, i32, i32, i32, [4 x [4 x i8]], [4 x [4 x i8]], [4 x i8], [4 x i8], i32, i32, i32, i32, i32, ptr, ptr, i32, float, float, [4 x i32], [4 x i32], [4 x i32], ptr }
%struct.AVFilter = type { ptr, ptr, ptr, ptr, ptr, i32 }

@.str.2 = private unnamed_addr constant [11 x i8] c"thistogram\00", align 1

; Function Attrs: nounwind uwtable
define internal i32 @config_output(ptr noundef %0) #0 {
  %2 = alloca ptr, align 8
  %3 = alloca ptr, align 8
  %4 = alloca ptr, align 8
  %5 = alloca i32, align 4
  %6 = alloca i32, align 4
  %7 = alloca %struct.AVRational, align 4
  store ptr %0, ptr %2, align 8, !tbaa !22
  call void @llvm.lifetime.start.p0(i64 8, ptr %3) #9
  %8 = load ptr, ptr %2, align 8, !tbaa !22
  %9 = getelementptr inbounds nuw %struct.AVFilterLink, ptr %8, i32 0, i32 0
  %10 = load ptr, ptr %9, align 8, !tbaa !141
  store ptr %10, ptr %3, align 8, !tbaa !4
  call void @llvm.lifetime.start.p0(i64 8, ptr %4) #9
  %11 = load ptr, ptr %3, align 8, !tbaa !4
  %12 = getelementptr inbounds nuw %struct.AVFilterContext, ptr %11, i32 0, i32 9
  %13 = load ptr, ptr %12, align 8, !tbaa !52
  store ptr %13, ptr %4, align 8, !tbaa !53
  call void @llvm.lifetime.start.p0(i64 4, ptr %5) #9
  store i32 0, ptr %5, align 4, !tbaa !38
  call void @llvm.lifetime.start.p0(i64 4, ptr %6) #9
  %14 = load ptr, ptr %3, align 8, !tbaa !4
  %15 = getelementptr inbounds nuw %struct.AVFilterContext, ptr %14, i32 0, i32 1
  %16 = load ptr, ptr %15, align 8, !tbaa !142
  %17 = getelementptr inbounds nuw %struct.AVFilter, ptr %16, i32 0, i32 0
  %18 = load ptr, ptr %17, align 8, !tbaa !143
  %19 = call i32 @strcmp(ptr noundef %18, ptr noundef @.str.2) #10
  %20 = icmp ne i32 %19, 0
  br i1 %20, label %24, label %21

21:                                               ; preds = %1
  %22 = load ptr, ptr %4, align 8, !tbaa !53
  %23 = getelementptr inbounds nuw %struct.HistogramContext, ptr %22, i32 0, i32 1
  store i32 1, ptr %23, align 8, !tbaa !61
  br label %24

24:                                               ; preds = %21, %1
  store i32 0, ptr %6, align 4, !tbaa !38
  br label %25

25:                                               ; preds = %43, %24
  %26 = load i32, ptr %6, align 4, !tbaa !38
  %27 = load ptr, ptr %4, align 8, !tbaa !53
  %28 = getelementptr inbounds nuw %struct.HistogramContext, ptr %27, i32 0, i32 10
  %29 = load i32, ptr %28, align 8, !tbaa !76
  %30 = icmp slt i32 %26, %29
  br i1 %30, label %31, label %46

31:                                               ; preds = %25
  %32 = load i32, ptr %6, align 4, !tbaa !38
  %33 = shl i32 1, %32
  %34 = load ptr, ptr %4, align 8, !tbaa !53
  %35 = getelementptr inbounds nuw %struct.HistogramContext, ptr %34, i32 0, i32 23
  %36 = load i32, ptr %35, align 8, !tbaa !79
  %37 = and i32 %33, %36
  %38 = icmp ne i32 %37, 0
  br i1 %38, label %39, label %42

39:                                               ; preds = %31
  %40 = load i32, ptr %5, align 4, !tbaa !38
  %41 = add nsw i32 %40, 1
  store i32 %41, ptr %5, align 4, !tbaa !38
  br label %42

42:                                               ; preds = %39, %31
  br label %43

43:                                               ; preds = %42
  %44 = load i32, ptr %6, align 4, !tbaa !38
  %45 = add nsw i32 %44, 1
  store i32 %45, ptr %6, align 4, !tbaa !38
  br label %25, !llvm.loop !145

46:                                               ; preds = %25
  %47 = load ptr, ptr %4, align 8, !tbaa !53
  %48 = getelementptr inbounds nuw %struct.HistogramContext, ptr %47, i32 0, i32 1
  %49 = load i32, ptr %48, align 8, !tbaa !61
  %50 = icmp ne i32 %49, 0
  br i1 %50, label %51, label %117

51:                                               ; preds = %46
  %52 = load ptr, ptr %4, align 8, !tbaa !53
  %53 = getelementptr inbounds nuw %struct.HistogramContext, ptr %52, i32 0, i32 6
  %54 = load i32, ptr %53, align 8, !tbaa !81
  %55 = icmp ne i32 %54, 0
  br i1 %55, label %66, label %56

56:                                               ; preds = %51
  %57 = load ptr, ptr %3, align 8, !tbaa !4
  %58 = getelementptr inbounds nuw %struct.AVFilterContext, ptr %57, i32 0, i32 4
  %59 = load ptr, ptr %58, align 8, !tbaa !9
  %60 = getelementptr inbounds ptr, ptr %59, i64 0
  %61 = load ptr, ptr %60, align 8, !tbaa !22
  %62 = getelementptr inbounds nuw %struct.AVFilterLink, ptr %61, i32 0, i32 6
  %63 = load i32, ptr %62, align 8, !tbaa !62
  %64 = load ptr, ptr %4, align 8, !tbaa !53
  %65 = getelementptr inbounds nuw %struct.HistogramContext, ptr %64, i32 0, i32 6
  store i32 %63, ptr %65, align 8, !tbaa !81
  br label %66

66:                                               ; preds = %56, %51
  %67 = load ptr, ptr %4, align 8, !tbaa !53
  %68 = getelementptr inbounds nuw %struct.HistogramContext, ptr %67, i32 0, i32 6
  %69 = load i32, ptr %68, align 8, !tbaa !81
  %70 = load i32, ptr %5, align 4, !tbaa !38
  %71 = load ptr, ptr %4, align 8, !tbaa !53
  %72 = getelementptr inbounds nuw %struct.HistogramContext, ptr %71, i32 0, i32 18
  %73 = load i32, ptr %72, align 8, !tbaa !80
  %74 = icmp eq i32 %73, 1
  %75 = zext i1 %74 to i32
  %76 = mul nsw i32 %70, %75
  %77 = icmp sgt i32 %76, 1
  br i1 %77, label %78, label %86

78:                                               ; preds = %66
  %79 = load i32, ptr %5, align 4, !tbaa !38
  %80 = load ptr, ptr %4, align 8, !tbaa !53
  %81 = getelementptr inbounds nuw %struct.HistogramContext, ptr %80, i32 0, i32 18
  %82 = load i32, ptr %81, align 8, !tbaa !80
  %83 = icmp eq i32 %82, 1
  %84 = zext i1 %83 to i32
  %85 = mul nsw i32 %79, %84
  br label %87

86:                                               ; preds = %66
  br label %87

87:                                               ; preds = %86, %78
  %88 = phi i32 [ %85, %78 ], [ 1, %86 ]
  %89 = mul nsw i32 %69, %88
  %90 = load ptr, ptr %2, align 8, !tbaa !22
  %91 = getelementptr inbounds nuw %struct.AVFilterLink, ptr %90, i32 0, i32 6
  store i32 %89, ptr %91, align 8, !tbaa !62
  %92 = load ptr, ptr %4, align 8, !tbaa !53
  %93 = getelementptr inbounds nuw %struct.HistogramContext, ptr %92, i32 0, i32 5
  %94 = load i32, ptr %93, align 4, !tbaa !68
  %95 = load i32, ptr %5, align 4, !tbaa !38
  %96 = load ptr, ptr %4, align 8, !tbaa !53
  %97 = getelementptr inbounds nuw %struct.HistogramContext, ptr %96, i32 0, i32 18
  %98 = load i32, ptr %97, align 8, !tbaa !80
  %99 = icmp eq i32 %98, 2
  %100 = zext i1 %99 to i32
  %101 = mul nsw i32 %95, %100
  %102 = icmp sgt i32 %101, 1
  br i1 %102, label %103, label %111

103:                                              ; preds = %87
  %104 = load i32, ptr %5, align 4, !tbaa !38
  %105 = load ptr, ptr %4, align 8, !tbaa !53
  %106 = getelementptr inbounds nuw %struct.HistogramContext, ptr %105, i32 0, i32 18
  %107 = load i32, ptr %106, align 8, !tbaa !80
  %108 = icmp eq i32 %107, 2
  %109 = zext i1 %108 to i32
  %110 = mul nsw i32 %104, %109
  br label %112

111:                                              ; preds = %87
  br label %112

112:                                              ; preds = %111, %103
  %113 = phi i32 [ %110, %103 ], [ 1, %111 ]
  %114 = mul nsw i32 %94, %113
  %115 = load ptr, ptr %2, align 8, !tbaa !22
  %116 = getelementptr inbounds nuw %struct.AVFilterLink, ptr %115, i32 0, i32 7
  store i32 %114, ptr %116, align 4, !tbaa !63
  br label %172

117:                                              ; preds = %46
  %118 = load ptr, ptr %4, align 8, !tbaa !53
  %119 = getelementptr inbounds nuw %struct.HistogramContext, ptr %118, i32 0, i32 5
  %120 = load i32, ptr %119, align 4, !tbaa !68
  %121 = load i32, ptr %5, align 4, !tbaa !38
  %122 = load ptr, ptr %4, align 8, !tbaa !53
  %123 = getelementptr inbounds nuw %struct.HistogramContext, ptr %122, i32 0, i32 18
  %124 = load i32, ptr %123, align 8, !tbaa !80
  %125 = icmp eq i32 %124, 1
  %126 = zext i1 %125 to i32
  %127 = mul nsw i32 %121, %126
  %128 = icmp sgt i32 %127, 1
  br i1 %128, label %129, label %137

129:                                              ; preds = %117
  %130 = load i32, ptr %5, align 4, !tbaa !38
  %131 = load ptr, ptr %4, align 8, !tbaa !53
  %132 = getelementptr inbounds nuw %struct.HistogramContext, ptr %131, i32 0, i32 18
  %133 = load i32, ptr %132, align 8, !tbaa !80
  %134 = icmp eq i32 %133, 1
  %135 = zext i1 %134 to i32
  %136 = mul nsw i32 %130, %135
  br label %138

137:                                              ; preds = %117
  br label %138

138:                                              ; preds = %137, %129
  %139 = phi i32 [ %136, %129 ], [ 1, %137 ]
  %140 = mul nsw i32 %120, %139
  %141 = load ptr, ptr %2, align 8, !tbaa !22
  %142 = getelementptr inbounds nuw %struct.AVFilterLink, ptr %141, i32 0, i32 6
  store i32 %140, ptr %142, align 8, !tbaa !62
  %143 = load ptr, ptr %4, align 8, !tbaa !53
  %144 = getelementptr inbounds nuw %struct.HistogramContext, ptr %143, i32 0, i32 16
  %145 = load i32, ptr %144, align 8, !tbaa !82
  %146 = load ptr, ptr %4, align 8, !tbaa !53
  %147 = getelementptr inbounds nuw %struct.HistogramContext, ptr %146, i32 0, i32 17
  %148 = load i32, ptr %147, align 4, !tbaa !83
  %149 = add nsw i32 %145, %148
  %150 = load i32, ptr %5, align 4, !tbaa !38
  %151 = load ptr, ptr %4, align 8, !tbaa !53
  %152 = getelementptr inbounds nuw %struct.HistogramContext, ptr %151, i32 0, i32 18
  %153 = load i32, ptr %152, align 8, !tbaa !80
  %154 = icmp eq i32 %153, 2
  %155 = zext i1 %154 to i32
  %156 = mul nsw i32 %150, %155
  %157 = icmp sgt i32 %156, 1
  br i1 %157, label %158, label %166

158:                                              ; preds = %138
  %159 = load i32, ptr %5, align 4, !tbaa !38
  %160 = load ptr, ptr %4, align 8, !tbaa !53
  %161 = getelementptr inbounds nuw %struct.HistogramContext, ptr %160, i32 0, i32 18
  %162 = load i32, ptr %161, align 8, !tbaa !80
  %163 = icmp eq i32 %162, 2
  %164 = zext i1 %163 to i32
  %165 = mul nsw i32 %159, %164
  br label %167

166:                                              ; preds = %138
  br label %167

167:                                              ; preds = %166, %158
  %168 = phi i32 [ %165, %158 ], [ 1, %166 ]
  %169 = mul nsw i32 %149, %168
  %170 = load ptr, ptr %2, align 8, !tbaa !22
  %171 = getelementptr inbounds nuw %struct.AVFilterLink, ptr %170, i32 0, i32 7
  store i32 %169, ptr %171, align 4, !tbaa !63
  br label %172

172:                                              ; preds = %167, %112
  %173 = load ptr, ptr %2, align 8, !tbaa !22
  %174 = getelementptr inbounds nuw %struct.AVFilterLink, ptr %173, i32 0, i32 5
  %175 = load i32, ptr %174, align 4, !tbaa !122
  %176 = call ptr @av_pix_fmt_desc_get(i32 noundef %175)
  %177 = load ptr, ptr %4, align 8, !tbaa !53
  %178 = getelementptr inbounds nuw %struct.HistogramContext, ptr %177, i32 0, i32 22
  store ptr %176, ptr %178, align 8, !tbaa !65
  %179 = load ptr, ptr %4, align 8, !tbaa !53
  %180 = getelementptr inbounds nuw %struct.HistogramContext, ptr %179, i32 0, i32 22
  %181 = load ptr, ptr %180, align 8, !tbaa !65
  %182 = getelementptr inbounds nuw %struct.AVPixFmtDescriptor, ptr %181, i32 0, i32 1
  %183 = load i8, ptr %182, align 8, !tbaa !123
  %184 = zext i8 %183 to i32
  %185 = load ptr, ptr %4, align 8, !tbaa !53
  %186 = getelementptr inbounds nuw %struct.HistogramContext, ptr %185, i32 0, i32 11
  store i32 %184, ptr %186, align 4, !tbaa !107
  %187 = load ptr, ptr %2, align 8, !tbaa !22
  %188 = getelementptr inbounds nuw %struct.AVFilterLink, ptr %187, i32 0, i32 8
  %189 = getelementptr inbounds nuw %struct.AVRational, ptr %7, i32 0, i32 0
  store i32 1, ptr %189, align 4, !tbaa !146
  %190 = getelementptr inbounds nuw %struct.AVRational, ptr %7, i32 0, i32 1
  store i32 1, ptr %190, align 4, !tbaa !147
  call void @llvm.memcpy.p0.p0.i64(ptr align 8 %188, ptr align 4 %7, i64 8, i1 false), !tbaa.struct !148
  call void @llvm.lifetime.end.p0(i64 4, ptr %6) #9
  call void @llvm.lifetime.end.p0(i64 4, ptr %5) #9
  call void @llvm.lifetime.end.p0(i64 8, ptr %4) #9
  call void @llvm.lifetime.end.p0(i64 8, ptr %3) #9
  ret i32 0
}