; Function Attrs: nounwind uwtable
define internal noundef i32 @config_output(ptr noundef captures(none) %0) #0 {
  %2 = load ptr, ptr %0, align 8, !tbaa !132
  %3 = getelementptr inbounds nuw i8, ptr %2, i64 72
  %4 = load ptr, ptr %3, align 8, !tbaa !47
  %5 = getelementptr inbounds nuw i8, ptr %2, i64 8
  %6 = load ptr, ptr %5, align 8, !tbaa !133
  %7 = load ptr, ptr %6, align 8, !tbaa !134
  %8 = tail call i32 @strcmp(ptr noundef nonnull dereferenceable(1) %7, ptr noundef nonnull dereferenceable(11) @.str.2) #9
  %.not = icmp eq i32 %8, 0
  br i1 %.not, label %9, label %11

9:                                                ; preds = %1
  %10 = getelementptr inbounds nuw i8, ptr %4, i64 8
  store i32 1, ptr %10, align 8, !tbaa !55
  br label %11

11:                                               ; preds = %9, %1
  %12 = getelementptr inbounds nuw i8, ptr %4, i64 262184
  %13 = load i32, ptr %12, align 8, !tbaa !70
  %14 = icmp sgt i32 %13, 0
  br i1 %14, label %.lr.ph, label %._crit_edge

.lr.ph:                                           ; preds = %11
  %15 = getelementptr inbounds nuw i8, ptr %4, i64 262272
  %16 = load i32, ptr %15, align 8, !tbaa !73
  br label %17

17:                                               ; preds = %.lr.ph, %17
  %.054 = phi i32 [ 0, %.lr.ph ], [ %spec.select, %17 ]
  %.04353 = phi i32 [ 0, %.lr.ph ], [ %20, %17 ]
  %18 = lshr i32 %16, %.04353
  %19 = and i32 %18, 1
  %spec.select = add nuw nsw i32 %19, %.054
  %20 = add nuw nsw i32 %.04353, 1
  %exitcond.not = icmp eq i32 %20, %13
  br i1 %exitcond.not, label %._crit_edge, label %17, !llvm.loop !136

._crit_edge:                                      ; preds = %17, %11
  %.0.lcssa = phi i32 [ 0, %11 ], [ %spec.select, %17 ]
  %21 = getelementptr inbounds nuw i8, ptr %4, i64 8
  %22 = load i32, ptr %21, align 8, !tbaa !55
  %.not48 = icmp eq i32 %22, 0
  br i1 %.not48, label %42, label %23

23:                                               ; preds = %._crit_edge
  %24 = getelementptr inbounds nuw i8, ptr %4, i64 262168
  %25 = load i32, ptr %24, align 8, !tbaa !75
  %.not49 = icmp eq i32 %25, 0
  br i1 %.not49, label %26, label %32

26:                                               ; preds = %23
  %27 = getelementptr inbounds nuw i8, ptr %2, i64 32
  %28 = load ptr, ptr %27, align 8, !tbaa !4
  %29 = load ptr, ptr %28, align 8, !tbaa !20
  %30 = getelementptr inbounds nuw i8, ptr %29, i64 40
  %31 = load i32, ptr %30, align 8, !tbaa !56
  store i32 %31, ptr %24, align 8, !tbaa !75
  br label %32

32:                                               ; preds = %26, %23
  %33 = phi i32 [ %31, %26 ], [ %25, %23 ]
  %34 = getelementptr inbounds nuw i8, ptr %4, i64 262240
  %35 = load i32, ptr %34, align 8, !tbaa !74
  %36 = icmp eq i32 %35, 1
  %37 = tail call i32 @llvm.smax.i32(i32 %.0.lcssa, i32 1)
  %spec.select51 = select i1 %36, i32 %37, i32 1
  %38 = mul nsw i32 %spec.select51, %33
  %39 = getelementptr inbounds nuw i8, ptr %0, i64 40
  store i32 %38, ptr %39, align 8, !tbaa !56
  %40 = getelementptr inbounds nuw i8, ptr %4, i64 262164
  %41 = load i32, ptr %40, align 4, !tbaa !62
  br label %56

42:                                               ; preds = %._crit_edge
  %43 = getelementptr inbounds nuw i8, ptr %4, i64 262164
  %44 = load i32, ptr %43, align 4, !tbaa !62
  %45 = getelementptr inbounds nuw i8, ptr %4, i64 262240
  %46 = load i32, ptr %45, align 8, !tbaa !74
  %47 = icmp eq i32 %46, 1
  %48 = tail call i32 @llvm.smax.i32(i32 %.0.lcssa, i32 1)
  %spec.select52 = select i1 %47, i32 %48, i32 1
  %49 = mul nsw i32 %spec.select52, %44
  %50 = getelementptr inbounds nuw i8, ptr %0, i64 40
  store i32 %49, ptr %50, align 8, !tbaa !56
  %51 = getelementptr inbounds nuw i8, ptr %4, i64 262232
  %52 = load i32, ptr %51, align 8, !tbaa !76
  %53 = getelementptr inbounds nuw i8, ptr %4, i64 262236
  %54 = load i32, ptr %53, align 4, !tbaa !77
  %55 = add nsw i32 %54, %52
  br label %56

56:                                               ; preds = %42, %32
  %.sink59 = phi i32 [ %46, %42 ], [ %35, %32 ]
  %.sink58 = phi i32 [ %48, %42 ], [ %37, %32 ]
  %.sink56 = phi i32 [ %55, %42 ], [ %41, %32 ]
  %57 = icmp eq i32 %.sink59, 2
  %58 = select i1 %57, i32 %.sink58, i32 1
  %59 = mul nsw i32 %.sink56, %58
  %60 = getelementptr inbounds nuw i8, ptr %0, i64 44
  store i32 %59, ptr %60, align 4, !tbaa !57
  %61 = getelementptr inbounds nuw i8, ptr %0, i64 36
  %62 = load i32, ptr %61, align 4, !tbaa !113
  %63 = tail call ptr @av_pix_fmt_desc_get(i32 noundef %62) #8
  %64 = getelementptr inbounds nuw i8, ptr %4, i64 262264
  store ptr %63, ptr %64, align 8, !tbaa !59
  %65 = getelementptr inbounds nuw i8, ptr %63, i64 8
  %66 = load i8, ptr %65, align 8, !tbaa !114
  %67 = zext i8 %66 to i32
  %68 = getelementptr inbounds nuw i8, ptr %4, i64 262188
  store i32 %67, ptr %68, align 4, !tbaa !97
  %69 = getelementptr inbounds nuw i8, ptr %0, i64 48
  store i32 1, ptr %69, align 8, !tbaa !38
  %.sroa.2.0..sroa_idx = getelementptr inbounds nuw i8, ptr %0, i64 52
  store i32 1, ptr %.sroa.2.0..sroa_idx, align 4, !tbaa !38
  ret i32 0
}